; Function Attrs: nofree norecurse nosync nounwind memory(read, argmem: readwrite, inaccessiblemem: none) uwtable
define internal fastcc void @ZSTD_opt_getNextMatchAndUpdateSeqStore(ptr noundef nonnull captures(none) initializes((40, 48)) %0, i32 noundef %1, i32 noundef %2) unnamed_addr #8 {
  %4 = getelementptr inbounds nuw i8, ptr %0, i64 24
  %5 = load i64, ptr %4, align 8, !tbaa !98
  %6 = icmp eq i64 %5, 0
  br i1 %6, label %10, label %7

7:                                                ; preds = %3
  %8 = getelementptr inbounds nuw i8, ptr %0, i64 8
  %9 = load i64, ptr %8, align 8, !tbaa !99
  %.not = icmp ult i64 %9, %5
  br i1 %.not, label %13, label %10

10:                                               ; preds = %7, %3
  %11 = getelementptr inbounds nuw i8, ptr %0, i64 40
  store i32 -1, ptr %11, align 8, !tbaa !32
  %12 = getelementptr inbounds nuw i8, ptr %0, i64 44
  store i32 -1, ptr %12, align 4, !tbaa !33
  br label %ZSTD_optLdm_skipRawSeqStoreBytes.exit

13:                                               ; preds = %7
  %14 = load ptr, ptr %0, align 8, !tbaa !100
  %15 = getelementptr inbounds nuw %struct.rawSeq, ptr %14, i64 %9
  %.sroa.4.0..sroa_idx = getelementptr inbounds nuw i8, ptr %15, i64 4
  %.sroa.4.0.copyload = load i32, ptr %.sroa.4.0..sroa_idx, align 4, !tbaa !23
  %.sroa.7.0..sroa_idx = getelementptr inbounds nuw i8, ptr %15, i64 8
  %.sroa.7.0.copyload = load i32, ptr %.sroa.7.0..sroa_idx, align 4, !tbaa !23
  %16 = add i32 %2, %1
  %17 = getelementptr inbounds nuw i8, ptr %0, i64 16
  %18 = load i64, ptr %17, align 8, !tbaa !101
  %19 = zext i32 %.sroa.4.0.copyload to i64
  %20 = icmp ult i64 %18, %19
  %21 = trunc i64 %18 to i32
  %22 = sub i32 %.sroa.4.0.copyload, %21
  %23 = select i1 %20, i32 %22, i32 0
  %24 = icmp eq i32 %23, 0
  %25 = select i1 %24, i32 %22, i32 0
  %spec.select = add i32 %25, %.sroa.7.0.copyload
  %.not43 = icmp ult i32 %23, %2
  br i1 %.not43, label %40, label %26

26:                                               ; preds = %13
  %27 = getelementptr inbounds nuw i8, ptr %0, i64 40
  store i32 -1, ptr %27, align 8, !tbaa !32
  %28 = getelementptr inbounds nuw i8, ptr %0, i64 44
  store i32 -1, ptr %28, align 4, !tbaa !33
  %29 = add i32 %2, %21
  %.not28.i = icmp eq i32 %29, 0
  br i1 %.not28.i, label %.critedge.i, label %.lr.ph.i

.lr.ph.i:                                         ; preds = %26, %36
  %30 = phi i64 [ %38, %36 ], [ %9, %26 ]
  %.01829.i = phi i32 [ %37, %36 ], [ %29, %26 ]
  %31 = icmp ult i64 %30, %5
  br i1 %31, label %32, label %.loopexit.i

32:                                               ; preds = %.lr.ph.i
  %33 = getelementptr inbounds nuw %struct.rawSeq, ptr %14, i64 %30
  %.sroa.3.0..sroa_idx.i = getelementptr inbounds nuw i8, ptr %33, i64 4
  %.sroa.3.0.copyload.i = load i32, ptr %.sroa.3.0..sroa_idx.i, align 4, !tbaa !23
  %.sroa.5.0..sroa_idx.i = getelementptr inbounds nuw i8, ptr %33, i64 8
  %.sroa.5.0.copyload.i = load i32, ptr %.sroa.5.0..sroa_idx.i, align 4, !tbaa !23
  %34 = add i32 %.sroa.5.0.copyload.i, %.sroa.3.0.copyload.i
  %.not21.i = icmp ult i32 %.01829.i, %34
  br i1 %.not21.i, label %.thread.i, label %36

.thread.i:                                        ; preds = %32
  %35 = zext i32 %.01829.i to i64
  store i64 %35, ptr %17, align 8, !tbaa !102
  br label %.loopexit.i

36:                                               ; preds = %32
  %37 = sub nuw i32 %.01829.i, %34
  %38 = add nuw i64 %30, 1
  store i64 %38, ptr %8, align 8, !tbaa !103
  %.not.i = icmp eq i32 %37, 0
  br i1 %.not.i, label %.critedge.i, label %.lr.ph.i

.loopexit.i:                                      ; preds = %.lr.ph.i, %.thread.i
  %39 = icmp eq i64 %30, %5
  br i1 %39, label %.critedge.i, label %ZSTD_optLdm_skipRawSeqStoreBytes.exit

.critedge.i:                                      ; preds = %36, %.loopexit.i, %26
  store i64 0, ptr %17, align 8, !tbaa !102
  br label %ZSTD_optLdm_skipRawSeqStoreBytes.exit

40:                                               ; preds = %13
  %.sroa.0.0.copyload = load i32, ptr %15, align 4, !tbaa !23
  %41 = add i32 %23, %1
  %42 = getelementptr inbounds nuw i8, ptr %0, i64 40
  store i32 %41, ptr %42, align 8, !tbaa !32
  %43 = add i32 %spec.select, %41
  %44 = getelementptr inbounds nuw i8, ptr %0, i64 44
  store i32 %43, ptr %44, align 4, !tbaa !33
  %45 = getelementptr inbounds nuw i8, ptr %0, i64 48
  store i32 %.sroa.0.0.copyload, ptr %45, align 8, !tbaa !29
  %46 = icmp ugt i32 %43, %16
  br i1 %46, label %47, label %59

47:                                               ; preds = %40
  store i32 %16, ptr %44, align 4, !tbaa !33
  %48 = add i32 %2, %21
  %.not28.i44 = icmp eq i32 %48, 0
  br i1 %.not28.i44, label %.critedge.i49, label %.lr.ph.i45

.lr.ph.i45:                                       ; preds = %47, %55
  %49 = phi i64 [ %57, %55 ], [ %9, %47 ]
  %.01829.i47 = phi i32 [ %56, %55 ], [ %48, %47 ]
  %50 = icmp ult i64 %49, %5
  br i1 %50, label %51, label %.loopexit.i48

51:                                               ; preds = %.lr.ph.i45
  %52 = getelementptr inbounds nuw %struct.rawSeq, ptr %14, i64 %49
  %.sroa.3.0..sroa_idx.i50 = getelementptr inbounds nuw i8, ptr %52, i64 4
  %.sroa.3.0.copyload.i51 = load i32, ptr %.sroa.3.0..sroa_idx.i50, align 4, !tbaa !23
  %.sroa.5.0..sroa_idx.i52 = getelementptr inbounds nuw i8, ptr %52, i64 8
  %.sroa.5.0.copyload.i53 = load i32, ptr %.sroa.5.0..sroa_idx.i52, align 4, !tbaa !23
  %53 = add i32 %.sroa.5.0.copyload.i53, %.sroa.3.0.copyload.i51
  %.not21.i54 = icmp ult i32 %.01829.i47, %53
  br i1 %.not21.i54, label %.thread.i56, label %55

.thread.i56:                                      ; preds = %51
  %54 = zext i32 %.01829.i47 to i64
  store i64 %54, ptr %17, align 8, !tbaa !102
  br label %.loopexit.i48

55:                                               ; preds = %51
  %56 = sub nuw i32 %.01829.i47, %53
  %57 = add nuw i64 %49, 1
  store i64 %57, ptr %8, align 8, !tbaa !103
  %.not.i55 = icmp eq i32 %56, 0
  br i1 %.not.i55, label %.critedge.i49, label %.lr.ph.i45

.loopexit.i48:                                    ; preds = %.lr.ph.i45, %.thread.i56
  %58 = icmp eq i64 %49, %5
  br i1 %58, label %.critedge.i49, label %ZSTD_optLdm_skipRawSeqStoreBytes.exit

.critedge.i49:                                    ; preds = %55, %.loopexit.i48, %47
  store i64 0, ptr %17, align 8, !tbaa !102
  br label %ZSTD_optLdm_skipRawSeqStoreBytes.exit

59:                                               ; preds = %40
  %60 = add i32 %23, %21
  %61 = add i32 %60, %spec.select
  %.not28.i58 = icmp eq i32 %61, 0
  br i1 %.not28.i58, label %.critedge.i63, label %.lr.ph.i59

.lr.ph.i59:                                       ; preds = %59, %68
  %62 = phi i64 [ %70, %68 ], [ %9, %59 ]
  %.01829.i61 = phi i32 [ %69, %68 ], [ %61, %59 ]
  %63 = icmp ult i64 %62, %5
  br i1 %63, label %64, label %.loopexit.i62

64:                                               ; preds = %.lr.ph.i59
  %65 = getelementptr inbounds nuw %struct.rawSeq, ptr %14, i64 %62
  %.sroa.3.0..sroa_idx.i64 = getelementptr inbounds nuw i8, ptr %65, i64 4
  %.sroa.3.0.copyload.i65 = load i32, ptr %.sroa.3.0..sroa_idx.i64, align 4, !tbaa !23
  %.sroa.5.0..sroa_idx.i66 = getelementptr inbounds nuw i8, ptr %65, i64 8
  %.sroa.5.0.copyload.i67 = load i32, ptr %.sroa.5.0..sroa_idx.i66, align 4, !tbaa !23
  %66 = add i32 %.sroa.5.0.copyload.i67, %.sroa.3.0.copyload.i65
  %.not21.i68 = icmp ult i32 %.01829.i61, %66
  br i1 %.not21.i68, label %.thread.i70, label %68

.thread.i70:                                      ; preds = %64
  %67 = zext i32 %.01829.i61 to i64
  store i64 %67, ptr %17, align 8, !tbaa !102
  br label %.loopexit.i62

68:                                               ; preds = %64
  %69 = sub nuw i32 %.01829.i61, %66
  %70 = add nuw i64 %62, 1
  store i64 %70, ptr %8, align 8, !tbaa !103
  %.not.i69 = icmp eq i32 %69, 0
  br i1 %.not.i69, label %.critedge.i63, label %.lr.ph.i59

.loopexit.i62:                                    ; preds = %.lr.ph.i59, %.thread.i70
  %71 = icmp eq i64 %62, %5
  br i1 %71, label %.critedge.i63, label %ZSTD_optLdm_skipRawSeqStoreBytes.exit

.critedge.i63:                                    ; preds = %68, %.loopexit.i62, %59
  store i64 0, ptr %17, align 8, !tbaa !102
  br label %ZSTD_optLdm_skipRawSeqStoreBytes.exit

ZSTD_optLdm_skipRawSeqStoreBytes.exit:            ; preds = %.critedge.i63, %.loopexit.i62, %.critedge.i49, %.loopexit.i48, %.critedge.i, %.loopexit.i, %10
  ret void
}